target datalayout = "e-m:e-p270:32:32-p271:32:32-p272:64:64-i64:64-i128:128-f80:128-n8:16:32:64-S128"
target triple = "x86_64-pc-linux-gnu"

%struct.TwoPhaseStateData = type { ptr, i32, [0 x ptr] }
%struct.GlobalTransactionData = type { ptr, i32, i64, i64, i64, i32, i32, i32, i8, i8, i8, [200 x i8] }
%struct.pg_atomic_uint32 = type { i32 }
%struct.LWLock = type { i16, %struct.pg_atomic_uint32, %struct.proclist_head }
%struct.proclist_head = type { i32, i32 }
%union.LWLockPadded = type { %struct.LWLock, [112 x i8] }
%struct.FullTransactionId = type { i64 }
%struct.TransamVariablesData = type { i32, i32, %struct.FullTransactionId, i32, i32, i32, i32, i32, i32, i32, i32, %struct.FullTransactionId, i64, i32 }

@TwoPhaseState = internal global ptr null, align 8
@MainLWLockArray = external global ptr, align 8
@TransamVariables = external global ptr, align 8

; Function Attrs: nounwind uwtable
define dso_local i32 @PrescanPreparedTransactions(ptr noundef %0, ptr noundef %1) #0 {
  %3 = alloca ptr, align 8
  %4 = alloca ptr, align 8
  %5 = alloca %struct.FullTransactionId, align 8
  %6 = alloca i32, align 4
  %7 = alloca i32, align 4
  %8 = alloca ptr, align 8
  %9 = alloca i32, align 4
  %10 = alloca i32, align 4
  %11 = alloca i32, align 4
  %12 = alloca i32, align 4
  %13 = alloca ptr, align 8
  %14 = alloca ptr, align 8
  %15 = alloca i32, align 4
  store ptr %0, ptr %3, align 8
  store ptr %1, ptr %4, align 8
  call void @llvm.lifetime.start.p0(i64 8, ptr %5) #12
  %16 = load ptr, ptr @TransamVariables, align 8
  %17 = getelementptr inbounds nuw %struct.TransamVariablesData, ptr %16, i32 0, i32 2
  call void @llvm.memcpy.p0.p0.i64(ptr align 8 %5, ptr align 8 %17, i64 8, i1 false)
  call void @llvm.lifetime.start.p0(i64 4, ptr %6) #12
  %18 = getelementptr inbounds nuw %struct.FullTransactionId, ptr %5, i32 0, i32 0
  %19 = load i64, ptr %18, align 8
  %20 = trunc i64 %19 to i32
  store i32 %20, ptr %6, align 4
  call void @llvm.lifetime.start.p0(i64 4, ptr %7) #12
  %21 = load i32, ptr %6, align 4
  store i32 %21, ptr %7, align 4
  call void @llvm.lifetime.start.p0(i64 8, ptr %8) #12
  store ptr null, ptr %8, align 8
  call void @llvm.lifetime.start.p0(i64 4, ptr %9) #12
  store i32 0, ptr %9, align 4
  call void @llvm.lifetime.start.p0(i64 4, ptr %10) #12
  store i32 0, ptr %10, align 4
  call void @llvm.lifetime.start.p0(i64 4, ptr %11) #12
  %22 = load ptr, ptr @MainLWLockArray, align 8
  %23 = getelementptr inbounds %union.LWLockPadded, ptr %22, i64 18
  %24 = call zeroext i1 @LWLockAcquire(ptr noundef %23, i32 noundef 0)
  store i32 0, ptr %11, align 4
  br label %25

25:                                               ; preds = %95, %2
  %26 = load i32, ptr %11, align 4
  %27 = load ptr, ptr @TwoPhaseState, align 8
  %28 = getelementptr inbounds nuw %struct.TwoPhaseStateData, ptr %27, i32 0, i32 1
  %29 = load i32, ptr %28, align 8
  %30 = icmp slt i32 %26, %29
  br i1 %30, label %31, label %98

31:                                               ; preds = %25
  call void @llvm.lifetime.start.p0(i64 4, ptr %12) #12
  call void @llvm.lifetime.start.p0(i64 8, ptr %13) #12
  call void @llvm.lifetime.start.p0(i64 8, ptr %14) #12
  %32 = load ptr, ptr @TwoPhaseState, align 8
  %33 = getelementptr inbounds nuw %struct.TwoPhaseStateData, ptr %32, i32 0, i32 2
  %34 = load i32, ptr %11, align 4
  %35 = sext i32 %34 to i64
  %36 = getelementptr inbounds [0 x ptr], ptr %33, i64 0, i64 %35
  %37 = load ptr, ptr %36, align 8
  store ptr %37, ptr %14, align 8
  %38 = load ptr, ptr %14, align 8
  %39 = getelementptr inbounds nuw %struct.GlobalTransactionData, ptr %38, i32 0, i32 5
  %40 = load i32, ptr %39, align 8
  store i32 %40, ptr %12, align 4
  %41 = load i32, ptr %12, align 4
  %42 = load ptr, ptr %14, align 8
  %43 = getelementptr inbounds nuw %struct.GlobalTransactionData, ptr %42, i32 0, i32 3
  %44 = load i64, ptr %43, align 8
  %45 = load ptr, ptr %14, align 8
  %46 = getelementptr inbounds nuw %struct.GlobalTransactionData, ptr %45, i32 0, i32 9
  %47 = load i8, ptr %46, align 1, !range !4, !noundef !5
  %48 = trunc i8 %47 to i1
  %49 = call ptr @ProcessTwoPhaseBuffer(i32 noundef %41, i64 noundef %44, i1 noundef zeroext %48, i1 noundef zeroext false, i1 noundef zeroext true)
  store ptr %49, ptr %13, align 8
  %50 = load ptr, ptr %13, align 8
  %51 = icmp eq ptr %50, null
  br i1 %51, label %52, label %53

52:                                               ; preds = %31
  store i32 4, ptr %15, align 4
  br label %92

53:                                               ; preds = %31
  %54 = load i32, ptr %12, align 4
  %55 = load i32, ptr %7, align 4
  %56 = call zeroext i1 @TransactionIdPrecedes(i32 noundef %54, i32 noundef %55)
  br i1 %56, label %57, label %59

57:                                               ; preds = %53
  %58 = load i32, ptr %12, align 4
  store i32 %58, ptr %7, align 4
  br label %59

59:                                               ; preds = %57, %53
  %60 = load ptr, ptr %3, align 8
  %61 = icmp ne ptr %60, null
  br i1 %61, label %62, label %90

62:                                               ; preds = %59
  %63 = load i32, ptr %9, align 4
  %64 = load i32, ptr %10, align 4
  %65 = icmp eq i32 %63, %64
  br i1 %65, label %66, label %83

66:                                               ; preds = %62
  %67 = load i32, ptr %9, align 4
  %68 = icmp eq i32 %67, 0
  br i1 %68, label %69, label %74

69:                                               ; preds = %66
  store i32 10, ptr %10, align 4
  %70 = load i32, ptr %10, align 4
  %71 = sext i32 %70 to i64
  %72 = mul i64 %71, 4
  %73 = call ptr @palloc(i64 noundef %72)
  store ptr %73, ptr %8, align 8
  br label %82

74:                                               ; preds = %66
  %75 = load i32, ptr %10, align 4
  %76 = mul i32 %75, 2
  store i32 %76, ptr %10, align 4
  %77 = load ptr, ptr %8, align 8
  %78 = load i32, ptr %10, align 4
  %79 = sext i32 %78 to i64
  %80 = mul i64 %79, 4
  %81 = call ptr @repalloc(ptr noundef %77, i64 noundef %80)
  store ptr %81, ptr %8, align 8
  br label %82

82:                                               ; preds = %74, %69
  br label %83

83:                                               ; preds = %82, %62
  %84 = load i32, ptr %12, align 4
  %85 = load ptr, ptr %8, align 8
  %86 = load i32, ptr %9, align 4
  %87 = add i32 %86, 1
  store i32 %87, ptr %9, align 4
  %88 = sext i32 %86 to i64
  %89 = getelementptr inbounds i32, ptr %85, i64 %88
  store i32 %84, ptr %89, align 4
  br label %90

90:                                               ; preds = %83, %59
  %91 = load ptr, ptr %13, align 8
  call void @pfree(ptr noundef %91)
  store i32 0, ptr %15, align 4
  br label %92

92:                                               ; preds = %90, %52
  call void @llvm.lifetime.end.p0(i64 8, ptr %14) #12
  call void @llvm.lifetime.end.p0(i64 8, ptr %13) #12
  call void @llvm.lifetime.end.p0(i64 4, ptr %12) #12
  %93 = load i32, ptr %15, align 4
  switch i32 %93, label %110 [
    i32 0, label %94
    i32 4, label %95
  ]

94:                                               ; preds = %92
  br label %95

95:                                               ; preds = %94, %92
  %96 = load i32, ptr %11, align 4
  %97 = add i32 %96, 1
  store i32 %97, ptr %11, align 4
  br label %25, !llvm.loop !21

98:                                               ; preds = %25
  %99 = load ptr, ptr @MainLWLockArray, align 8
  %100 = getelementptr inbounds %union.LWLockPadded, ptr %99, i64 18
  call void @LWLockRelease(ptr noundef %100)
  %101 = load ptr, ptr %3, align 8
  %102 = icmp ne ptr %101, null
  br i1 %102, label %103, label %108

103:                                              ; preds = %98
  %104 = load ptr, ptr %8, align 8
  %105 = load ptr, ptr %3, align 8
  store ptr %104, ptr %105, align 8
  %106 = load i32, ptr %9, align 4
  %107 = load ptr, ptr %4, align 8
  store i32 %106, ptr %107, align 4
  br label %108

108:                                              ; preds = %103, %98
  %109 = load i32, ptr %7, align 4
  store i32 1, ptr %15, align 4
  call void @llvm.lifetime.end.p0(i64 4, ptr %11) #12
  call void @llvm.lifetime.end.p0(i64 4, ptr %10) #12
  call void @llvm.lifetime.end.p0(i64 4, ptr %9) #12
  call void @llvm.lifetime.end.p0(i64 8, ptr %8) #12
  call void @llvm.lifetime.end.p0(i64 4, ptr %7) #12
  call void @llvm.lifetime.end.p0(i64 4, ptr %6) #12
  call void @llvm.lifetime.end.p0(i64 8, ptr %5) #12
  ret i32 %109

110:                                              ; preds = %92
  unreachable
}