; Function Attrs: nounwind uwtable
define dso_local i32 @PrescanPreparedTransactions(ptr noundef writeonly captures(address_is_null) %0, ptr noundef writeonly captures(none) %1) local_unnamed_addr #0 {
  %3 = load ptr, ptr @TransamVariables, align 8
  %4 = getelementptr inbounds nuw i8, ptr %3, i64 8
  %.sroa.0.0.copyload = load i64, ptr %4, align 8
  %5 = trunc i64 %.sroa.0.0.copyload to i32
  %6 = load ptr, ptr @MainLWLockArray, align 8
  %7 = getelementptr inbounds nuw i8, ptr %6, i64 2304
  %8 = tail call zeroext i1 @LWLockAcquire(ptr noundef nonnull %7, i32 noundef 0) #14
  %9 = load ptr, ptr @TwoPhaseState, align 8
  %10 = getelementptr inbounds nuw i8, ptr %9, i64 8
  %11 = load i32, ptr %10, align 8
  %12 = icmp sgt i32 %11, 0
  br i1 %12, label %.lr.ph, label %._crit_edge

.lr.ph:                                           ; preds = %2
  %.not42 = icmp eq ptr %0, null
  br i1 %.not42, label %.lr.ph.split.us, label %.lr.ph.split

.lr.ph.split.us:                                  ; preds = %.lr.ph, %28
  %indvars.iv54 = phi i64 [ %indvars.iv.next55, %28 ], [ 0, %.lr.ph ]
  %13 = phi ptr [ %29, %28 ], [ %9, %.lr.ph ]
  %.047.us = phi i32 [ %.1.us, %28 ], [ %5, %.lr.ph ]
  %14 = getelementptr inbounds nuw i8, ptr %13, i64 16
  %15 = getelementptr inbounds nuw [0 x ptr], ptr %14, i64 0, i64 %indvars.iv54
  %16 = load ptr, ptr %15, align 8
  %17 = getelementptr inbounds nuw i8, ptr %16, i64 40
  %18 = load i32, ptr %17, align 8
  %19 = getelementptr inbounds nuw i8, ptr %16, i64 24
  %20 = load i64, ptr %19, align 8
  %21 = getelementptr inbounds nuw i8, ptr %16, i64 53
  %22 = load i8, ptr %21, align 1, !range !4, !noundef !5
  %23 = trunc nuw i8 %22 to i1
  %24 = tail call fastcc ptr @ProcessTwoPhaseBuffer(i32 noundef %18, i64 noundef %20, i1 noundef zeroext %23, i1 noundef zeroext false, i1 noundef zeroext true)
  %25 = icmp eq ptr %24, null
  br i1 %25, label %28, label %26

26:                                               ; preds = %.lr.ph.split.us
  %27 = tail call zeroext i1 @TransactionIdPrecedes(i32 noundef %18, i32 noundef %.047.us) #14
  %spec.select.us = select i1 %27, i32 %18, i32 %.047.us
  tail call void @pfree(ptr noundef nonnull %24) #14
  br label %28

28:                                               ; preds = %26, %.lr.ph.split.us
  %.1.us = phi i32 [ %spec.select.us, %26 ], [ %.047.us, %.lr.ph.split.us ]
  %indvars.iv.next55 = add nuw nsw i64 %indvars.iv54, 1
  %29 = load ptr, ptr @TwoPhaseState, align 8
  %30 = getelementptr inbounds nuw i8, ptr %29, i64 8
  %31 = load i32, ptr %30, align 8
  %32 = sext i32 %31 to i64
  %33 = icmp slt i64 %indvars.iv.next55, %32
  br i1 %33, label %.lr.ph.split.us, label %._crit_edge, !llvm.loop !21

.lr.ph.split:                                     ; preds = %.lr.ph, %63
  %indvars.iv = phi i64 [ %indvars.iv.next, %63 ], [ 0, %.lr.ph ]
  %34 = phi ptr [ %64, %63 ], [ %9, %.lr.ph ]
  %.047 = phi i32 [ %.1, %63 ], [ %5, %.lr.ph ]
  %.02946 = phi ptr [ %.130, %63 ], [ null, %.lr.ph ]
  %.03245 = phi i32 [ %.133, %63 ], [ 0, %.lr.ph ]
  %.03643 = phi i32 [ %.137, %63 ], [ 0, %.lr.ph ]
  %35 = getelementptr inbounds nuw i8, ptr %34, i64 16
  %36 = getelementptr inbounds nuw [0 x ptr], ptr %35, i64 0, i64 %indvars.iv
  %37 = load ptr, ptr %36, align 8
  %38 = getelementptr inbounds nuw i8, ptr %37, i64 40
  %39 = load i32, ptr %38, align 8
  %40 = getelementptr inbounds nuw i8, ptr %37, i64 24
  %41 = load i64, ptr %40, align 8
  %42 = getelementptr inbounds nuw i8, ptr %37, i64 53
  %43 = load i8, ptr %42, align 1, !range !4, !noundef !5
  %44 = trunc nuw i8 %43 to i1
  %45 = tail call fastcc ptr @ProcessTwoPhaseBuffer(i32 noundef %39, i64 noundef %41, i1 noundef zeroext %44, i1 noundef zeroext false, i1 noundef zeroext true)
  %46 = icmp eq ptr %45, null
  br i1 %46, label %63, label %47

47:                                               ; preds = %.lr.ph.split
  %48 = tail call zeroext i1 @TransactionIdPrecedes(i32 noundef %39, i32 noundef %.047) #14
  %spec.select = select i1 %48, i32 %39, i32 %.047
  %49 = icmp eq i32 %.03245, %.03643
  br i1 %49, label %50, label %59

50:                                               ; preds = %47
  %51 = icmp eq i32 %.03245, 0
  br i1 %51, label %52, label %54

52:                                               ; preds = %50
  %53 = tail call ptr @palloc(i64 noundef 40) #14
  br label %59

54:                                               ; preds = %50
  %55 = shl i32 %.03245, 1
  %56 = sext i32 %55 to i64
  %57 = shl nsw i64 %56, 2
  %58 = tail call ptr @repalloc(ptr noundef %.02946, i64 noundef %57) #14
  br label %59

59:                                               ; preds = %52, %54, %47
  %.339 = phi i32 [ 10, %52 ], [ %55, %54 ], [ %.03643, %47 ]
  %.3 = phi ptr [ %53, %52 ], [ %58, %54 ], [ %.02946, %47 ]
  %60 = add i32 %.03245, 1
  %61 = sext i32 %.03245 to i64
  %62 = getelementptr inbounds i32, ptr %.3, i64 %61
  store i32 %39, ptr %62, align 4
  tail call void @pfree(ptr noundef nonnull %45) #14
  br label %63

63:                                               ; preds = %.lr.ph.split, %59
  %.137 = phi i32 [ %.339, %59 ], [ %.03643, %.lr.ph.split ]
  %.133 = phi i32 [ %60, %59 ], [ %.03245, %.lr.ph.split ]
  %.130 = phi ptr [ %.3, %59 ], [ %.02946, %.lr.ph.split ]
  %.1 = phi i32 [ %spec.select, %59 ], [ %.047, %.lr.ph.split ]
  %indvars.iv.next = add nuw nsw i64 %indvars.iv, 1
  %64 = load ptr, ptr @TwoPhaseState, align 8
  %65 = getelementptr inbounds nuw i8, ptr %64, i64 8
  %66 = load i32, ptr %65, align 8
  %67 = sext i32 %66 to i64
  %68 = icmp slt i64 %indvars.iv.next, %67
  br i1 %68, label %.lr.ph.split, label %._crit_edge, !llvm.loop !21

._crit_edge:                                      ; preds = %63, %28, %2
  %.032.lcssa = phi i32 [ 0, %2 ], [ 0, %28 ], [ %.133, %63 ]
  %.029.lcssa = phi ptr [ null, %2 ], [ null, %28 ], [ %.130, %63 ]
  %.0.lcssa = phi i32 [ %5, %2 ], [ %.1.us, %28 ], [ %.1, %63 ]
  %69 = load ptr, ptr @MainLWLockArray, align 8
  %70 = getelementptr inbounds nuw i8, ptr %69, i64 2304
  tail call void @LWLockRelease(ptr noundef nonnull %70) #14
  %.not = icmp eq ptr %0, null
  br i1 %.not, label %72, label %71

71:                                               ; preds = %._crit_edge
  store ptr %.029.lcssa, ptr %0, align 8
  store i32 %.032.lcssa, ptr %1, align 4
  br label %72

72:                                               ; preds = %71, %._crit_edge
  ret i32 %.0.lcssa
}